; Function Attrs: mustprogress uwtable
define void @_ZN33MLRenderingPerVertTextCoordAction18createSisterActionERP17MLRenderingActionP7QObject(ptr noundef nonnull align 8 dereferenceable(20) %0, ptr nocapture noundef nonnull writeonly align 8 dereferenceable(8) %1, ptr noundef %2) unnamed_addr #9 align 2 personality ptr @__gxx_personality_v0 {
  %4 = alloca i8, align 1
  %5 = alloca %class.QVariant, align 8
  %6 = tail call noalias noundef nonnull dereferenceable(24) ptr @_Znwm(i64 noundef 24) #24
  %7 = getelementptr inbounds i8, ptr %0, i64 16
  %8 = load i32, ptr %7, align 8
  call void @llvm.lifetime.start.p0(i64 1, ptr nonnull %4)
  call void @llvm.lifetime.start.p0(i64 16, ptr nonnull %5)
  store i8 0, ptr %4, align 1
  invoke void @_ZNK7QAction4dataEv(ptr dead_on_unwind nonnull writable sret(%class.QVariant) align 8 %5, ptr noundef nonnull align 8 dereferenceable(16) %0)
          to label %.noexc unwind label %14

.noexc:                                           ; preds = %3
  %9 = invoke noundef i32 @_ZNK8QVariant5toIntEPb(ptr noundef nonnull align 8 dereferenceable(16) %5, ptr noundef nonnull %4)
          to label %12 unwind label %10

10:                                               ; preds = %.noexc
  %11 = landingpad { ptr, i32 }
          cleanup
  call void @_ZN8QVariantD1Ev(ptr noundef nonnull align 8 dereferenceable(16) %5) #21
  br label %.body

12:                                               ; preds = %.noexc
  call void @_ZN8QVariantD1Ev(ptr noundef nonnull align 8 dereferenceable(16) %5) #21
  call void @llvm.lifetime.end.p0(i64 1, ptr nonnull %4)
  call void @llvm.lifetime.end.p0(i64 16, ptr nonnull %5)
  invoke void @_ZN33MLRenderingPerVertTextCoordActionC1EN3vcg20GLMeshAttributesInfo18PRIMITIVE_MODALITYEiP7QObject(ptr noundef nonnull align 8 dereferenceable(20) %6, i32 noundef %8, i32 noundef %9, ptr noundef %2)
          to label %13 unwind label %14

13:                                               ; preds = %12
  store ptr %6, ptr %1, align 8
  ret void

14:                                               ; preds = %3, %12
  %15 = landingpad { ptr, i32 }
          cleanup
  br label %.body

.body:                                            ; preds = %10, %14
  %eh.lpad-body = phi { ptr, i32 } [ %15, %14 ], [ %11, %10 ]
  call void @_ZdlPv(ptr noundef nonnull %6) #20
  resume { ptr, i32 } %eh.lpad-body
}